target datalayout = "e-m:e-p270:32:32-p271:32:32-p272:64:64-i64:64-i128:128-f80:128-n8:16:32:64-S128"
target triple = "x86_64-unknown-linux-gnu"

%"class.llvh::ArrayRef" = type { ptr, i64 }
%"union.hermes::hbc::BytecodeOptions" = type { %struct.anon }
%struct.anon = type { i8 }
%"class.llvh::ArrayRef.1" = type { ptr, i64 }
%"class.llvh::ArrayRef.2" = type { ptr, i64 }
%"class.llvh::ArrayRef.3" = type { ptr, i64 }
%"class.llvh::ArrayRef.4" = type { ptr, i64 }
%"class.llvh::ArrayRef.5" = type { ptr, i64 }
%"class.llvh::ArrayRef.6" = type { ptr, i64 }
%"class.llvh::ArrayRef.7" = type { ptr, i64 }
%"class.std::__cxx11::basic_string" = type { %"struct.std::__cxx11::basic_string<char>::_Alloc_hider", i64, %union.anon }
%"struct.std::__cxx11::basic_string<char>::_Alloc_hider" = type { ptr }
%union.anon = type { i64, [8 x i8] }
%"class.hermes::hbc::BCProviderBase" = type { ptr, %"union.hermes::hbc::BytecodeOptions", i32, i32, i32, %"class.llvh::ArrayRef.2", %"class.llvh::ArrayRef.3", %"class.llvh::ArrayRef", %"class.llvh::ArrayRef", %"class.llvh::ArrayRef", %"class.llvh::ArrayRef", %"class.llvh::ArrayRef.5", %"class.llvh::ArrayRef", %"class.llvh::ArrayRef.6", %"class.llvh::ArrayRef", i32, %"class.llvh::ArrayRef.7", %"class.llvh::ArrayRef.7", %"class.llvh::ArrayRef.7", ptr, %"class.std::__cxx11::basic_string" }
%"class.hermes::hbc::BCProviderFromBuffer" = type { %"class.hermes::hbc::BCProviderBase", %"class.std::unique_ptr", ptr, ptr, ptr, %"class.llvh::ArrayRef.4", i32, [4 x i8], %"class.llvh::Optional.31", %"struct.std::atomic", %"class.std::unique_ptr.36", ptr }
%"class.std::unique_ptr" = type { %"struct.std::__uniq_ptr_data" }
%"struct.std::__uniq_ptr_data" = type { %"class.std::__uniq_ptr_impl" }
%"class.std::__uniq_ptr_impl" = type { %"class.std::tuple" }
%"class.std::tuple" = type { %"struct.std::_Tuple_impl" }
%"struct.std::_Tuple_impl" = type { %"struct.std::_Head_base.30" }
%"struct.std::_Head_base.30" = type { ptr }
%"class.llvh::Optional.31" = type { %"struct.llvh::optional_detail::OptionalStorage.32" }
%"struct.llvh::optional_detail::OptionalStorage.32" = type { %"struct.llvh::AlignedCharArrayUnion.33", i8, [7 x i8] }
%"struct.llvh::AlignedCharArrayUnion.33" = type { %"struct.llvh::AlignedCharArray.34" }
%"struct.llvh::AlignedCharArray.34" = type { [8 x i8] }
%"struct.std::atomic" = type { %"struct.std::__atomic_base" }
%"struct.std::__atomic_base" = type { i8 }
%"class.std::unique_ptr.36" = type { %"struct.std::__uniq_ptr_data.37" }
%"struct.std::__uniq_ptr_data.37" = type { %"class.std::__uniq_ptr_impl.38" }
%"class.std::__uniq_ptr_impl.38" = type { %"class.std::tuple.39" }
%"class.std::tuple.39" = type { %"struct.std::_Tuple_impl.40" }
%"struct.std::_Tuple_impl.40" = type { %"struct.std::_Head_base.43" }
%"struct.std::_Head_base.43" = type { ptr }
%"struct.hermes::hbc::OverflowStringTableEntry" = type { i32, i32 }

; Function Attrs: mustprogress nounwind uwtable
define linkonce_odr hidden noundef i64 @_ZN4llvh9alignAddrEPKvm(ptr noundef %Addr, i64 noundef %Alignment) #0 comdat {
entry:
  %Addr.addr = alloca ptr, align 8
  %Alignment.addr = alloca i64, align 8
  store ptr %Addr, ptr %Addr.addr, align 8
  store i64 %Alignment, ptr %Alignment.addr, align 8
  %0 = load ptr, ptr %Addr.addr, align 8
  %1 = ptrtoint ptr %0 to i64
  %2 = load i64, ptr %Alignment.addr, align 8
  %add = add i64 %1, %2
  %sub = sub i64 %add, 1
  %3 = load i64, ptr %Alignment.addr, align 8
  %sub1 = sub i64 %3, 1
  %not = xor i64 %sub1, -1
  %and = and i64 %sub, %not
  ret i64 %and
}

; Function Attrs: mustprogress nounwind uwtable
define internal void @_ZN6hermes3hbc12_GLOBAL__N_113pageAlignDownEPPhRm(ptr noundef %ptr, ptr noundef nonnull align 8 dereferenceable(8) %byteLen) #0 {
entry:
  %ptr.addr = alloca ptr, align 8
  %byteLen.addr = alloca ptr, align 8
  %PS = alloca i64, align 8
  %orig = alloca ptr, align 8
  store ptr %ptr, ptr %ptr.addr, align 8
  store ptr %byteLen, ptr %byteLen.addr, align 8
  %call = call noundef i64 @_ZN6hermes8oscompat9page_sizeEv()
  store i64 %call, ptr %PS, align 8
  %0 = load ptr, ptr %ptr.addr, align 8
  %1 = load ptr, ptr %0, align 8
  store ptr %1, ptr %orig, align 8
  %2 = load ptr, ptr %ptr.addr, align 8
  %3 = load ptr, ptr %2, align 8
  %add.ptr = getelementptr inbounds i8, ptr %3, i64 1
  %4 = load i64, ptr %PS, align 8
  %call1 = call noundef i64 @_ZN4llvh9alignAddrEPKvm(ptr noundef %add.ptr, i64 noundef %4)
  %5 = load i64, ptr %PS, align 8
  %sub = sub i64 %call1, %5
  %6 = inttoptr i64 %sub to ptr
  %7 = load ptr, ptr %ptr.addr, align 8
  store ptr %6, ptr %7, align 8
  %8 = load ptr, ptr %orig, align 8
  %9 = load ptr, ptr %ptr.addr, align 8
  %10 = load ptr, ptr %9, align 8
  %sub.ptr.lhs.cast = ptrtoint ptr %8 to i64
  %sub.ptr.rhs.cast = ptrtoint ptr %10 to i64
  %sub.ptr.sub = sub i64 %sub.ptr.lhs.cast, %sub.ptr.rhs.cast
  %11 = load ptr, ptr %byteLen.addr, align 8
  %12 = load i64, ptr %11, align 8
  %add = add i64 %12, %sub.ptr.sub
  store i64 %add, ptr %11, align 8
  ret void
}

; Function Attrs: mustprogress nounwind uwtable
define internal noundef ptr @_ZN6hermes3hbc12_GLOBAL__N_111rawptr_castIKNS0_24OverflowStringTableEntryEEEPhPT_(ptr noundef %p) #0 {
entry:
  %p.addr = alloca ptr, align 8
  store ptr %p, ptr %p.addr, align 8
  %0 = load ptr, ptr %p.addr, align 8
  ret ptr %0
}

; Function Attrs: mustprogress nounwind uwtable
define linkonce_odr hidden noundef ptr @_ZNK4llvh8ArrayRefIN6hermes3hbc24OverflowStringTableEntryEE3endEv(ptr noundef nonnull align 8 dereferenceable(16) %this) #0 comdat align 2 {
entry:
  %this.addr = alloca ptr, align 8
  store ptr %this, ptr %this.addr, align 8
  %this1 = load ptr, ptr %this.addr, align 8
  %Data = getelementptr inbounds %"class.llvh::ArrayRef.4", ptr %this1, i32 0, i32 0
  %0 = load ptr, ptr %Data, align 8
  %Length = getelementptr inbounds %"class.llvh::ArrayRef.4", ptr %this1, i32 0, i32 1
  %1 = load i64, ptr %Length, align 8
  %add.ptr = getelementptr inbounds %"struct.hermes::hbc::OverflowStringTableEntry", ptr %0, i64 %1
  ret ptr %add.ptr
}

; Function Attrs: mustprogress nounwind uwtable
define internal noundef ptr @_ZN6hermes3hbc12_GLOBAL__N_111rawptr_castIKNS_10StringKind5EntryEEEPhPT_(ptr noundef %p) #0 {
entry:
  %p.addr = alloca ptr, align 8
  store ptr %p, ptr %p.addr, align 8
  %0 = load ptr, ptr %p.addr, align 8
  ret ptr %0
}

; Function Attrs: mustprogress nounwind uwtable
define linkonce_odr hidden noundef ptr @_ZNK4llvh8ArrayRefIN6hermes10StringKind5EntryEE5beginEv(ptr noundef nonnull align 8 dereferenceable(16) %this) #0 comdat align 2 {
entry:
  %this.addr = alloca ptr, align 8
  store ptr %this, ptr %this.addr, align 8
  %this1 = load ptr, ptr %this.addr, align 8
  %Data = getelementptr inbounds %"class.llvh::ArrayRef.2", ptr %this1, i32 0, i32 0
  %0 = load ptr, ptr %Data, align 8
  ret ptr %0
}

; Function Attrs: mustprogress nounwind uwtable
define linkonce_odr hidden void @_ZN4llvh8ArrayRefIN6hermes3hbc21SmallStringTableEntryEEC2EPKS3_m(ptr noundef nonnull align 8 dereferenceable(16) %this, ptr noundef %data, i64 noundef %length) unnamed_addr #0 comdat align 2 {
entry:
  %this.addr = alloca ptr, align 8
  %data.addr = alloca ptr, align 8
  %length.addr = alloca i64, align 8
  store ptr %this, ptr %this.addr, align 8
  store ptr %data, ptr %data.addr, align 8
  store i64 %length, ptr %length.addr, align 8
  %this1 = load ptr, ptr %this.addr, align 8
  %Data = getelementptr inbounds %"class.llvh::ArrayRef.1", ptr %this1, i32 0, i32 0
  %0 = load ptr, ptr %data.addr, align 8
  store ptr %0, ptr %Data, align 8
  %Length = getelementptr inbounds %"class.llvh::ArrayRef.1", ptr %this1, i32 0, i32 1
  %1 = load i64, ptr %length.addr, align 8
  store i64 %1, ptr %Length, align 8
  ret void
}

; Function Attrs: mustprogress nounwind uwtable
define hidden void @_ZN6hermes3hbc20BCProviderFromBuffer19willNeedStringTableEv(ptr noundef nonnull align 8 dereferenceable(376) %this) unnamed_addr #0 align 2 {
entry:
  %this.addr = alloca ptr, align 8
  %smallStringTableEntries = alloca %"class.llvh::ArrayRef.1", align 8
  %start = alloca ptr, align 8
  %end = alloca ptr, align 8
  %prefetchLength = alloca i64, align 8
  store ptr %this, ptr %this.addr, align 8
  %this1 = load ptr, ptr %this.addr, align 8
  %stringTableEntries_ = getelementptr inbounds %"class.hermes::hbc::BCProviderFromBuffer", ptr %this1, i32 0, i32 4
  %0 = load ptr, ptr %stringTableEntries_, align 8
  %stringCount_ = getelementptr inbounds %"class.hermes::hbc::BCProviderBase", ptr %this1, i32 0, i32 4
  %1 = load i32, ptr %stringCount_, align 4
  %conv = zext i32 %1 to i64
  call void @_ZN4llvh8ArrayRefIN6hermes3hbc21SmallStringTableEntryEEC2EPKS3_m(ptr noundef nonnull align 8 dereferenceable(16) %smallStringTableEntries, ptr noundef %0, i64 noundef %conv)
  %stringKinds_ = getelementptr inbounds %"class.hermes::hbc::BCProviderBase", ptr %this1, i32 0, i32 5
  %call = call noundef ptr @_ZNK4llvh8ArrayRefIN6hermes10StringKind5EntryEE5beginEv(ptr noundef nonnull align 8 dereferenceable(16) %stringKinds_)
  %call2 = call noundef ptr @_ZN6hermes3hbc12_GLOBAL__N_111rawptr_castIKNS_10StringKind5EntryEEEPhPT_(ptr noundef %call)
  store ptr %call2, ptr %start, align 8
  %overflowStringTableEntries_ = getelementptr inbounds %"class.hermes::hbc::BCProviderFromBuffer", ptr %this1, i32 0, i32 5
  %call3 = call noundef ptr @_ZNK4llvh8ArrayRefIN6hermes3hbc24OverflowStringTableEntryEE3endEv(ptr noundef nonnull align 8 dereferenceable(16) %overflowStringTableEntries_)
  %call4 = call noundef ptr @_ZN6hermes3hbc12_GLOBAL__N_111rawptr_castIKNS0_24OverflowStringTableEntryEEEPhPT_(ptr noundef %call3)
  store ptr %call4, ptr %end, align 8
  %2 = load ptr, ptr %end, align 8
  %3 = load ptr, ptr %start, align 8
  %sub.ptr.lhs.cast = ptrtoint ptr %2 to i64
  %sub.ptr.rhs.cast = ptrtoint ptr %3 to i64
  %sub.ptr.sub = sub i64 %sub.ptr.lhs.cast, %sub.ptr.rhs.cast
  store i64 %sub.ptr.sub, ptr %prefetchLength, align 8
  call void @_ZN6hermes3hbc12_GLOBAL__N_113pageAlignDownEPPhRm(ptr noundef %start, ptr noundef nonnull align 8 dereferenceable(8) %prefetchLength)
  %4 = load ptr, ptr %start, align 8
  %5 = load i64, ptr %prefetchLength, align 8
  call void @_ZN6hermes8oscompat11vm_prefetchEPvm(ptr noundef %4, i64 noundef %5)
  ret void
}