; Function Attrs: mustprogress nounwind uwtable
define hidden void @_ZN6hermes3hbc20BCProviderFromBuffer19willNeedStringTableEv(ptr nocapture noundef nonnull readonly align 8 dereferenceable(376) %this) unnamed_addr #0 align 2 {
entry:
  %stringKinds_ = getelementptr inbounds i8, ptr %this, i64 24
  %0 = load ptr, ptr %stringKinds_, align 8
  %overflowStringTableEntries_ = getelementptr inbounds i8, ptr %this, i64 312
  %1 = load ptr, ptr %overflowStringTableEntries_, align 8
  %Length.i1 = getelementptr inbounds i8, ptr %this, i64 320
  %2 = load i64, ptr %Length.i1, align 8
  %add.ptr.i = getelementptr inbounds %"struct.hermes::hbc::OverflowStringTableEntry", ptr %1, i64 %2
  %sub.ptr.lhs.cast = ptrtoint ptr %add.ptr.i to i64
  %call.i = tail call noundef i64 @_ZN6hermes8oscompat9page_sizeEv() #19
  %add.ptr.i2 = getelementptr inbounds i8, ptr %0, i64 1
  %3 = ptrtoint ptr %add.ptr.i2 to i64
  %add.i.i = add i64 %3, -1
  %sub.i.i = add i64 %add.i.i, %call.i
  %not.i.i = sub i64 0, %call.i
  %and.i.i = and i64 %sub.i.i, %not.i.i
  %sub.i = sub i64 %and.i.i, %call.i
  %4 = inttoptr i64 %sub.i to ptr
  %add.i = sub i64 %sub.ptr.lhs.cast, %sub.i
  tail call void @_ZN6hermes8oscompat11vm_prefetchEPvm(ptr noundef %4, i64 noundef %add.i) #19
  ret void
}